target datalayout = "e-m:e-p270:32:32-p271:32:32-p272:64:64-i64:64-i128:128-f80:128-n8:16:32:64-S128"
target triple = "x86_64-pc-linux-gnu"

%struct.rb_global_entry = type { ptr, i64, i8 }
%struct.rb_global_variable = type { i32, i32, ptr, ptr, ptr, ptr, ptr, ptr }
%struct.trace_data = type { ptr, i64 }

; Function Attrs: nounwind sspstrong uwtable
define internal i64 @rb_gvar_set_entry(ptr noundef %0, i64 noundef %1) #0 {
  %3 = alloca ptr, align 8
  %4 = alloca i64, align 8
  %5 = alloca %struct.trace_data, align 8
  %6 = alloca ptr, align 8
  store ptr %0, ptr %3, align 8, !tbaa !52
  store i64 %1, ptr %4, align 8, !tbaa !14
  call void @llvm.lifetime.start.p0(i64 16, ptr %5) #30
  call void @llvm.lifetime.start.p0(i64 8, ptr %6) #30
  %7 = load ptr, ptr %3, align 8, !tbaa !52
  %8 = getelementptr inbounds nuw %struct.rb_global_entry, ptr %7, i32 0, i32 0
  %9 = load ptr, ptr %8, align 8, !tbaa !54
  store ptr %9, ptr %6, align 8, !tbaa !62
  %10 = load ptr, ptr %6, align 8, !tbaa !62
  %11 = getelementptr inbounds nuw %struct.rb_global_variable, ptr %10, i32 0, i32 4
  %12 = load ptr, ptr %11, align 8, !tbaa !64
  %13 = load i64, ptr %4, align 8, !tbaa !14
  %14 = load ptr, ptr %3, align 8, !tbaa !52
  %15 = getelementptr inbounds nuw %struct.rb_global_entry, ptr %14, i32 0, i32 1
  %16 = load i64, ptr %15, align 8, !tbaa !68
  %17 = load ptr, ptr %6, align 8, !tbaa !62
  %18 = getelementptr inbounds nuw %struct.rb_global_variable, ptr %17, i32 0, i32 2
  %19 = load ptr, ptr %18, align 8, !tbaa !67
  call void %12(i64 noundef %13, i64 noundef %16, ptr noundef %19)
  %20 = load ptr, ptr %6, align 8, !tbaa !62
  %21 = getelementptr inbounds nuw %struct.rb_global_variable, ptr %20, i32 0, i32 7
  %22 = load ptr, ptr %21, align 8, !tbaa !70
  %23 = icmp ne ptr %22, null
  br i1 %23, label %24, label %42

24:                                               ; preds = %2
  %25 = load ptr, ptr %6, align 8, !tbaa !62
  %26 = getelementptr inbounds nuw %struct.rb_global_variable, ptr %25, i32 0, i32 1
  %27 = load i32, ptr %26, align 4, !tbaa !69
  %28 = icmp ne i32 %27, 0
  br i1 %28, label %42, label %29

29:                                               ; preds = %24
  %30 = load ptr, ptr %6, align 8, !tbaa !62
  %31 = getelementptr inbounds nuw %struct.rb_global_variable, ptr %30, i32 0, i32 1
  store i32 1, ptr %31, align 4, !tbaa !69
  %32 = load ptr, ptr %6, align 8, !tbaa !62
  %33 = getelementptr inbounds nuw %struct.rb_global_variable, ptr %32, i32 0, i32 7
  %34 = load ptr, ptr %33, align 8, !tbaa !70
  %35 = getelementptr inbounds nuw %struct.trace_data, ptr %5, i32 0, i32 0
  store ptr %34, ptr %35, align 8, !tbaa !87
  %36 = load i64, ptr %4, align 8, !tbaa !14
  %37 = getelementptr inbounds nuw %struct.trace_data, ptr %5, i32 0, i32 1
  store i64 %36, ptr %37, align 8, !tbaa !89
  %38 = ptrtoint ptr %5 to i64
  %39 = load ptr, ptr %6, align 8, !tbaa !62
  %40 = ptrtoint ptr %39 to i64
  %41 = call i64 @rb_ensure(ptr noundef @trace_ev, i64 noundef %38, ptr noundef @trace_en, i64 noundef %40)
  br label %42

42:                                               ; preds = %29, %24, %2
  %43 = load i64, ptr %4, align 8, !tbaa !14
  call void @llvm.lifetime.end.p0(i64 8, ptr %6) #30
  call void @llvm.lifetime.end.p0(i64 16, ptr %5) #30
  ret i64 %43
}

; Function Attrs: nounwind sspstrong uwtable
define hidden i64 @rb_gvar_set(i64 noundef %0, i64 noundef %1) #0 {
  %3 = alloca i64, align 8
  %4 = alloca i64, align 8
  %5 = alloca ptr, align 8
  store i64 %0, ptr %3, align 8, !tbaa !14
  store i64 %1, ptr %4, align 8, !tbaa !14
  call void @llvm.lifetime.start.p0(i64 8, ptr %5) #30
  %6 = load i64, ptr %3, align 8, !tbaa !14
  %7 = call ptr @rb_global_entry(i64 noundef %6)
  store ptr %7, ptr %5, align 8, !tbaa !52
  %8 = load ptr, ptr %5, align 8, !tbaa !52
  %9 = load i64, ptr %4, align 8, !tbaa !14
  %10 = call i64 @rb_gvar_set_entry(ptr noundef %8, i64 noundef %9)
  call void @llvm.lifetime.end.p0(i64 8, ptr %5) #30
  ret i64 %10
}