; Function Attrs: nounwind sspstrong uwtable
define hidden noundef i64 @rb_gvar_set(i64 noundef %0, i64 noundef returned %1) local_unnamed_addr #0 {
  %3 = alloca %struct.trace_data, align 8
  %4 = tail call fastcc ptr @rb_global_entry(i64 noundef %0)
  %.val = load ptr, ptr %4, align 8, !tbaa !58
  %5 = getelementptr i8, ptr %4, i64 8
  %.val2 = load i64, ptr %5, align 8, !tbaa !78
  call void @llvm.lifetime.start.p0(i64 16, ptr nonnull %3) #27
  %6 = getelementptr inbounds nuw i8, ptr %.val, i64 24
  %7 = load ptr, ptr %6, align 8, !tbaa !74
  %8 = getelementptr inbounds nuw i8, ptr %.val, i64 8
  %9 = load ptr, ptr %8, align 8, !tbaa !77
  tail call void %7(i64 noundef %1, i64 noundef %.val2, ptr noundef %9) #27
  %10 = getelementptr inbounds nuw i8, ptr %.val, i64 48
  %11 = load ptr, ptr %10, align 8, !tbaa !64
  %.not.i = icmp eq ptr %11, null
  br i1 %.not.i, label %rb_gvar_set_entry.exit, label %12

12:                                               ; preds = %2
  %13 = getelementptr inbounds nuw i8, ptr %.val, i64 4
  %14 = load i32, ptr %13, align 4, !tbaa !79
  %.not11.i = icmp eq i32 %14, 0
  br i1 %.not11.i, label %15, label %rb_gvar_set_entry.exit

15:                                               ; preds = %12
  store i32 1, ptr %13, align 4, !tbaa !79
  store ptr %11, ptr %3, align 8, !tbaa !89
  %16 = getelementptr inbounds nuw i8, ptr %3, i64 8
  store i64 %1, ptr %16, align 8, !tbaa !91
  %17 = ptrtoint ptr %3 to i64
  %18 = ptrtoint ptr %.val to i64
  %19 = call i64 @rb_ensure(ptr noundef nonnull @trace_ev, i64 noundef %17, ptr noundef nonnull @trace_en, i64 noundef %18) #27
  br label %rb_gvar_set_entry.exit

rb_gvar_set_entry.exit:                           ; preds = %2, %12, %15
  call void @llvm.lifetime.end.p0(i64 16, ptr nonnull %3) #27
  ret i64 %1
}